; Function Attrs: mustprogress uwtable
define internal fastcc noundef i64 @_ZN7Imf_3_212_GLOBAL__N_116writeLineOffsetsERNS_7OStreamERKSt6vectorImSaImEE(ptr noundef nonnull align 8 dereferenceable(40) %os, ptr nocapture noundef nonnull readonly align 8 dereferenceable(24) %lineOffsets) unnamed_addr #3 personality ptr @__gxx_personality_v0 {
entry:
  %b.i = alloca [8 x i8], align 1
  %ref.tmp = alloca %"class.std::__cxx11::basic_string", align 8
  %ref.tmp1 = alloca %"class.std::allocator", align 1
  %vtable = load ptr, ptr %os, align 8
  %vfn = getelementptr inbounds i8, ptr %vtable, i64 24
  %0 = load ptr, ptr %vfn, align 8
  %call = tail call noundef i64 %0(ptr noundef nonnull align 8 dereferenceable(40) %os)
  %cmp = icmp eq i64 %call, -1
  br i1 %cmp, label %if.then, label %if.end

if.then:                                          ; preds = %entry
  call void @_ZNSaIcEC1Ev(ptr noundef nonnull align 1 dereferenceable(1) %ref.tmp1) #20
  %call.i7 = invoke noundef ptr @_ZNSt7__cxx1112basic_stringIcSt11char_traitsIcESaIcEE13_M_local_dataEv(ptr noundef nonnull align 8 dereferenceable(32) %ref.tmp)
          to label %call.i.noexc unwind label %lpad

call.i.noexc:                                     ; preds = %if.then
  invoke void @_ZNSt7__cxx1112basic_stringIcSt11char_traitsIcESaIcEE12_Alloc_hiderC1EPcRKS3_(ptr noundef nonnull align 8 dereferenceable(8) %ref.tmp, ptr noundef %call.i7, ptr noundef nonnull align 1 dereferenceable(1) %ref.tmp1)
          to label %.noexc unwind label %lpad

.noexc:                                           ; preds = %call.i.noexc
  invoke void @_ZNSt7__cxx1112basic_stringIcSt11char_traitsIcESaIcEE12_M_constructIPKcEEvT_S8_St20forward_iterator_tag(ptr noundef nonnull align 8 dereferenceable(32) %ref.tmp, ptr noundef nonnull @.str.35, ptr noundef nonnull getelementptr inbounds ([45 x i8], ptr @.str.35, i64 0, i64 44))
          to label %invoke.cont unwind label %lpad.i

lpad.i:                                           ; preds = %.noexc
  %1 = landingpad { ptr, i32 }
          cleanup
  call void @_ZNSaIcED2Ev(ptr noundef nonnull align 1 dereferenceable(1) %ref.tmp) #20
  br label %ehcleanup

invoke.cont:                                      ; preds = %.noexc
  invoke void @_ZN7Iex_3_213throwErrnoExcERKNSt7__cxx1112basic_stringIcSt11char_traitsIcESaIcEEE(ptr noundef nonnull align 8 dereferenceable(32) %ref.tmp)
          to label %invoke.cont3 unwind label %lpad2

invoke.cont3:                                     ; preds = %invoke.cont
  call void @_ZNSt7__cxx1112basic_stringIcSt11char_traitsIcESaIcEED1Ev(ptr noundef nonnull align 8 dereferenceable(32) %ref.tmp) #20
  call void @_ZNSaIcED1Ev(ptr noundef nonnull align 1 dereferenceable(1) %ref.tmp1) #20
  br label %if.end

lpad:                                             ; preds = %call.i.noexc, %if.then
  %2 = landingpad { ptr, i32 }
          cleanup
  br label %ehcleanup

lpad2:                                            ; preds = %invoke.cont
  %3 = landingpad { ptr, i32 }
          cleanup
  call void @_ZNSt7__cxx1112basic_stringIcSt11char_traitsIcESaIcEED1Ev(ptr noundef nonnull align 8 dereferenceable(32) %ref.tmp) #20
  br label %ehcleanup

ehcleanup:                                        ; preds = %lpad, %lpad.i, %lpad2
  %.pn = phi { ptr, i32 } [ %3, %lpad2 ], [ %2, %lpad ], [ %1, %lpad.i ]
  call void @_ZNSaIcED1Ev(ptr noundef nonnull align 1 dereferenceable(1) %ref.tmp1) #20
  resume { ptr, i32 } %.pn

if.end:                                           ; preds = %invoke.cont3, %entry
  %_M_finish.i = getelementptr inbounds i8, ptr %lineOffsets, i64 8
  %4 = load ptr, ptr %_M_finish.i, align 8
  %5 = load ptr, ptr %lineOffsets, align 8
  %cmp513.not = icmp eq ptr %4, %5
  br i1 %cmp513.not, label %for.end, label %for.body.lr.ph

for.body.lr.ph:                                   ; preds = %if.end
  %arrayidx2.i = getelementptr inbounds i8, ptr %b.i, i64 1
  %arrayidx5.i = getelementptr inbounds i8, ptr %b.i, i64 2
  %arrayidx8.i = getelementptr inbounds i8, ptr %b.i, i64 3
  %arrayidx11.i = getelementptr inbounds i8, ptr %b.i, i64 4
  %arrayidx14.i = getelementptr inbounds i8, ptr %b.i, i64 5
  %arrayidx17.i = getelementptr inbounds i8, ptr %b.i, i64 6
  %arrayidx20.i = getelementptr inbounds i8, ptr %b.i, i64 7
  br label %for.body

for.body:                                         ; preds = %for.body.lr.ph, %for.body
  %6 = phi ptr [ %5, %for.body.lr.ph ], [ %10, %for.body ]
  %conv15 = phi i64 [ 0, %for.body.lr.ph ], [ %conv, %for.body ]
  %i.014 = phi i32 [ 0, %for.body.lr.ph ], [ %inc, %for.body ]
  %add.ptr.i8 = getelementptr inbounds i64, ptr %6, i64 %conv15
  %7 = load i64, ptr %add.ptr.i8, align 8
  call void @llvm.lifetime.start.p0(i64 8, ptr nonnull %b.i)
  %conv.i = trunc i64 %7 to i8
  store i8 %conv.i, ptr %b.i, align 1
  %shr.i = lshr i64 %7, 8
  %conv1.i = trunc i64 %shr.i to i8
  store i8 %conv1.i, ptr %arrayidx2.i, align 1
  %shr3.i = lshr i64 %7, 16
  %conv4.i = trunc i64 %shr3.i to i8
  store i8 %conv4.i, ptr %arrayidx5.i, align 1
  %shr6.i = lshr i64 %7, 24
  %conv7.i = trunc i64 %shr6.i to i8
  store i8 %conv7.i, ptr %arrayidx8.i, align 1
  %shr9.i = lshr i64 %7, 32
  %conv10.i = trunc i64 %shr9.i to i8
  store i8 %conv10.i, ptr %arrayidx11.i, align 1
  %shr12.i = lshr i64 %7, 40
  %conv13.i = trunc i64 %shr12.i to i8
  store i8 %conv13.i, ptr %arrayidx14.i, align 1
  %shr15.i = lshr i64 %7, 48
  %conv16.i = trunc i64 %shr15.i to i8
  store i8 %conv16.i, ptr %arrayidx17.i, align 1
  %shr18.i = lshr i64 %7, 56
  %conv19.i = trunc i64 %shr18.i to i8
  store i8 %conv19.i, ptr %arrayidx20.i, align 1
  %vtable.i.i.i = load ptr, ptr %os, align 8
  %vfn.i.i.i = getelementptr inbounds i8, ptr %vtable.i.i.i, i64 16
  %8 = load ptr, ptr %vfn.i.i.i, align 8
  call void %8(ptr noundef nonnull align 8 dereferenceable(40) %os, ptr noundef nonnull %b.i, i32 noundef 8)
  call void @llvm.lifetime.end.p0(i64 8, ptr nonnull %b.i)
  %inc = add i32 %i.014, 1
  %conv = zext i32 %inc to i64
  %9 = load ptr, ptr %_M_finish.i, align 8
  %10 = load ptr, ptr %lineOffsets, align 8
  %sub.ptr.lhs.cast.i = ptrtoint ptr %9 to i64
  %sub.ptr.rhs.cast.i = ptrtoint ptr %10 to i64
  %sub.ptr.sub.i = sub i64 %sub.ptr.lhs.cast.i, %sub.ptr.rhs.cast.i
  %sub.ptr.div.i = ashr exact i64 %sub.ptr.sub.i, 3
  %cmp5 = icmp ugt i64 %sub.ptr.div.i, %conv
  br i1 %cmp5, label %for.body, label %for.end, !llvm.loop !9

for.end:                                          ; preds = %for.body, %if.end
  ret i64 %call
}